(lp0
(lp1
(lp2
I00
aa(lp3
I00
aa(lp4
I00
aa(lp5
I00
aa(lp6
I00
aa(lp7
I00
aa(lp8
I00
aa(lp9
I00
aa(lp10
I00
aa(lp11
I00
aa(lp12
I00
aa(lp13
I00
aa(lp14
I00
aa(lp15
I00
aa(lp16
I00
aa(lp17
I00
aa(lp18
I00
aa(lp19
I00
aa(lp20
I00
aa(lp21
I00
aaa(lp22
(lp23
I00
aa(lp24
I00
aa(lp25
I00
aa(lp26
I00
aa(lp27
I00
aa(lp28
I00
aa(lp29
I00
aa(lp30
I00
aa(lp31
I00
aa(lp32
I00
aa(lp33
I00
aa(lp34
I00
aa(lp35
I00
aa(lp36
I00
aa(lp37
I00
aa(lp38
I00
aa(lp39
I00
aa(lp40
I00
aa(lp41
I00
aa(lp42
I00
aaa(lp43
(lp44
I00
aa(lp45
I00
aa(lp46
I00
aa(lp47
I01
aa(lp48
I00
aa(lp49
I00
aa(lp50
I00
aa(lp51
I00
aa(lp52
I00
aa(lp53
I00
aa(lp54
I00
aa(lp55
I00
aa(lp56
I00
aa(lp57
I00
aa(lp58
I00
aa(lp59
I00
aa(lp60
I00
aa(lp61
I00
aa(lp62
I00
aa(lp63
I00
aaa(lp64
(lp65
I00
aa(lp66
I01
aa(lp67
I00
aa(lp68
I01
aa(lp69
I00
aa(lp70
I00
aa(lp71
I00
aa(lp72
I00
aa(lp73
I00
aa(lp74
I00
aa(lp75
I00
aa(lp76
I00
aa(lp77
I00
aa(lp78
I00
aa(lp79
I00
aa(lp80
I00
aa(lp81
I00
aa(lp82
I00
aa(lp83
I00
aa(lp84
I00
aaa(lp85
(lp86
I00
aa(lp87
I00
aa(lp88
I01
aa(lp89
I01
aa(lp90
I00
aa(lp91
I00
aa(lp92
I00
aa(lp93
I00
aa(lp94
I00
aa(lp95
I00
aa(lp96
I00
aa(lp97
I00
aa(lp98
I00
aa(lp99
I00
aa(lp100
I00
aa(lp101
I00
aa(lp102
I00
aa(lp103
I00
aa(lp104
I00
aa(lp105
I00
aaa(lp106
(lp107
I00
aa(lp108
I00
aa(lp109
I00
aa(lp110
I00
aa(lp111
I00
aa(lp112
I00
aa(lp113
I00
aa(lp114
I00
aa(lp115
I00
aa(lp116
I00
aa(lp117
I00
aa(lp118
I00
aa(lp119
I00
aa(lp120
I00
aa(lp121
I00
aa(lp122
I00
aa(lp123
I00
aa(lp124
I00
aa(lp125
I00
aa(lp126
I00
aaa(lp127
(lp128
I00
aa(lp129
I00
aa(lp130
I00
aa(lp131
I00
aa(lp132
I00
aa(lp133
I00
aa(lp134
I00
aa(lp135
I00
aa(lp136
I00
aa(lp137
I00
aa(lp138
I00
aa(lp139
I00
aa(lp140
I00
aa(lp141
I00
aa(lp142
I00
aa(lp143
I00
aa(lp144
I00
aa(lp145
I00
aa(lp146
I00
aa(lp147
I00
aaa(lp148
(lp149
I00
aa(lp150
I00
aa(lp151
I00
aa(lp152
I00
aa(lp153
I00
aa(lp154
I00
aa(lp155
I00
aa(lp156
I00
aa(lp157
I00
aa(lp158
I00
aa(lp159
I00
aa(lp160
I00
aa(lp161
I00
aa(lp162
I00
aa(lp163
I00
aa(lp164
I00
aa(lp165
I00
aa(lp166
I00
aa(lp167
I00
aa(lp168
I00
aaa(lp169
(lp170
I00
aa(lp171
I00
aa(lp172
I00
aa(lp173
I00
aa(lp174
I00
aa(lp175
I00
aa(lp176
I00
aa(lp177
I00
aa(lp178
I00
aa(lp179
I00
aa(lp180
I00
aa(lp181
I00
aa(lp182
I00
aa(lp183
I00
aa(lp184
I00
aa(lp185
I00
aa(lp186
I00
aa(lp187
I00
aa(lp188
I00
aa(lp189
I00
aaa(lp190
(lp191
I00
aa(lp192
I00
aa(lp193
I00
aa(lp194
I00
aa(lp195
I00
aa(lp196
I00
aa(lp197
I00
aa(lp198
I00
aa(lp199
I00
aa(lp200
I00
aa(lp201
I00
aa(lp202
I00
aa(lp203
I00
aa(lp204
I00
aa(lp205
I00
aa(lp206
I00
aa(lp207
I00
aa(lp208
I00
aa(lp209
I00
aa(lp210
I00
aaa(lp211
(lp212
I00
aa(lp213
I00
aa(lp214
I00
aa(lp215
I00
aa(lp216
I00
aa(lp217
I00
aa(lp218
I00
aa(lp219
I00
aa(lp220
I00
aa(lp221
I00
aa(lp222
I00
aa(lp223
I00
aa(lp224
I00
aa(lp225
I00
aa(lp226
I00
aa(lp227
I00
aa(lp228
I00
aa(lp229
I00
aa(lp230
I00
aa(lp231
I00
aaa(lp232
(lp233
I00
aa(lp234
I00
aa(lp235
I00
aa(lp236
I00
aa(lp237
I00
aa(lp238
I00
aa(lp239
I00
aa(lp240
I00
aa(lp241
I00
aa(lp242
I00
aa(lp243
I00
aa(lp244
I00
aa(lp245
I00
aa(lp246
I00
aa(lp247
I00
aa(lp248
I00
aa(lp249
I00
aa(lp250
I00
aa(lp251
I00
aa(lp252
I00
aaa(lp253
(lp254
I00
aa(lp255
I00
aa(lp256
I00
aa(lp257
I00
aa(lp258
I00
aa(lp259
I00
aa(lp260
I00
aa(lp261
I00
aa(lp262
I00
aa(lp263
I00
aa(lp264
I00
aa(lp265
I00
aa(lp266
I00
aa(lp267
I00
aa(lp268
I00
aa(lp269
I00
aa(lp270
I00
aa(lp271
I00
aa(lp272
I00
aa(lp273
I00
aaa(lp274
(lp275
I00
aa(lp276
I00
aa(lp277
I00
aa(lp278
I00
aa(lp279
I00
aa(lp280
I00
aa(lp281
I00
aa(lp282
I00
aa(lp283
I00
aa(lp284
I00
aa(lp285
I00
aa(lp286
I00
aa(lp287
I00
aa(lp288
I00
aa(lp289
I00
aa(lp290
I00
aa(lp291
I00
aa(lp292
I00
aa(lp293
I00
aa(lp294
I00
aaa(lp295
(lp296
I00
aa(lp297
I00
aa(lp298
I00
aa(lp299
I00
aa(lp300
I00
aa(lp301
I00
aa(lp302
I00
aa(lp303
I00
aa(lp304
I00
aa(lp305
I00
aa(lp306
I00
aa(lp307
I00
aa(lp308
I00
aa(lp309
I00
aa(lp310
I00
aa(lp311
I00
aa(lp312
I00
aa(lp313
I00
aa(lp314
I00
aa(lp315
I00
aaa(lp316
(lp317
I00
aa(lp318
I00
aa(lp319
I00
aa(lp320
I00
aa(lp321
I00
aa(lp322
I00
aa(lp323
I00
aa(lp324
I00
aa(lp325
I00
aa(lp326
I00
aa(lp327
I00
aa(lp328
I00
aa(lp329
I00
aa(lp330
I00
aa(lp331
I00
aa(lp332
I00
aa(lp333
I00
aa(lp334
I00
aa(lp335
I00
aa(lp336
I00
aaa(lp337
(lp338
I00
aa(lp339
I00
aa(lp340
I00
aa(lp341
I00
aa(lp342
I00
aa(lp343
I00
aa(lp344
I00
aa(lp345
I00
aa(lp346
I00
aa(lp347
I00
aa(lp348
I00
aa(lp349
I00
aa(lp350
I00
aa(lp351
I00
aa(lp352
I00
aa(lp353
I00
aa(lp354
I00
aa(lp355
I00
aa(lp356
I00
aa(lp357
I00
aaa(lp358
(lp359
I00
aa(lp360
I00
aa(lp361
I00
aa(lp362
I00
aa(lp363
I00
aa(lp364
I00
aa(lp365
I00
aa(lp366
I00
aa(lp367
I00
aa(lp368
I00
aa(lp369
I00
aa(lp370
I00
aa(lp371
I00
aa(lp372
I00
aa(lp373
I00
aa(lp374
I00
aa(lp375
I00
aa(lp376
I00
aa(lp377
I00
aa(lp378
I00
aaa(lp379
(lp380
I00
aa(lp381
I00
aa(lp382
I00
aa(lp383
I00
aa(lp384
I00
aa(lp385
I00
aa(lp386
I00
aa(lp387
I00
aa(lp388
I00
aa(lp389
I00
aa(lp390
I00
aa(lp391
I00
aa(lp392
I00
aa(lp393
I00
aa(lp394
I00
aa(lp395
I00
aa(lp396
I00
aa(lp397
I00
aa(lp398
I00
aa(lp399
I00
aaa(lp400
(lp401
I00
aa(lp402
I00
aa(lp403
I00
aa(lp404
I00
aa(lp405
I00
aa(lp406
I00
aa(lp407
I00
aa(lp408
I00
aa(lp409
I00
aa(lp410
I00
aa(lp411
I00
aa(lp412
I00
aa(lp413
I00
aa(lp414
I00
aa(lp415
I00
aa(lp416
I00
aa(lp417
I00
aa(lp418
I00
aa(lp419
I00
aa(lp420
I00
aaa(lp421
(lp422
I00
aa(lp423
I00
aa(lp424
I00
aa(lp425
I00
aa(lp426
I00
aa(lp427
I00
aa(lp428
I00
aa(lp429
I00
aa(lp430
I00
aa(lp431
I00
aa(lp432
I00
aa(lp433
I00
aa(lp434
I00
aa(lp435
I00
aa(lp436
I00
aa(lp437
I00
aa(lp438
I00
aa(lp439
I00
aa(lp440
I00
aa(lp441
I00
aaa(lp442
(lp443
I00
aa(lp444
I00
aa(lp445
I00
aa(lp446
I00
aa(lp447
I00
aa(lp448
I00
aa(lp449
I00
aa(lp450
I00
aa(lp451
I00
aa(lp452
I00
aa(lp453
I00
aa(lp454
I00
aa(lp455
I00
aa(lp456
I00
aa(lp457
I00
aa(lp458
I00
aa(lp459
I00
aa(lp460
I00
aa(lp461
I00
aa(lp462
I00
aaa(lp463
(lp464
I00
aa(lp465
I00
aa(lp466
I00
aa(lp467
I00
aa(lp468
I00
aa(lp469
I00
aa(lp470
I00
aa(lp471
I00
aa(lp472
I00
aa(lp473
I00
aa(lp474
I00
aa(lp475
I00
aa(lp476
I00
aa(lp477
I00
aa(lp478
I00
aa(lp479
I00
aa(lp480
I00
aa(lp481
I00
aa(lp482
I00
aa(lp483
I00
aaa(lp484
(lp485
I00
aa(lp486
I00
aa(lp487
I00
aa(lp488
I00
aa(lp489
I00
aa(lp490
I00
aa(lp491
I00
aa(lp492
I00
aa(lp493
I00
aa(lp494
I00
aa(lp495
I00
aa(lp496
I00
aa(lp497
I00
aa(lp498
I00
aa(lp499
I00
aa(lp500
I00
aa(lp501
I00
aa(lp502
I00
aa(lp503
I00
aa(lp504
I00
aaa(lp505
(lp506
I00
aa(lp507
I00
aa(lp508
I00
aa(lp509
I00
aa(lp510
I00
aa(lp511
I00
aa(lp512
I00
aa(lp513
I00
aa(lp514
I00
aa(lp515
I00
aa(lp516
I00
aa(lp517
I00
aa(lp518
I00
aa(lp519
I00
aa(lp520
I00
aa(lp521
I00
aa(lp522
I00
aa(lp523
I00
aa(lp524
I00
aa(lp525
I00
aaa(lp526
(lp527
I00
aa(lp528
I00
aa(lp529
I00
aa(lp530
I00
aa(lp531
I00
aa(lp532
I00
aa(lp533
I00
aa(lp534
I00
aa(lp535
I00
aa(lp536
I00
aa(lp537
I00
aa(lp538
I00
aa(lp539
I00
aa(lp540
I00
aa(lp541
I00
aa(lp542
I00
aa(lp543
I00
aa(lp544
I00
aa(lp545
I00
aa(lp546
I00
aaa(lp547
(lp548
I00
aa(lp549
I00
aa(lp550
I00
aa(lp551
I00
aa(lp552
I00
aa(lp553
I00
aa(lp554
I00
aa(lp555
I00
aa(lp556
I00
aa(lp557
I00
aa(lp558
I00
aa(lp559
I00
aa(lp560
I00
aa(lp561
I00
aa(lp562
I00
aa(lp563
I00
aa(lp564
I00
aa(lp565
I00
aa(lp566
I00
aa(lp567
I00
aaa(lp568
(lp569
I00
aa(lp570
I00
aa(lp571
I00
aa(lp572
I00
aa(lp573
I00
aa(lp574
I00
aa(lp575
I00
aa(lp576
I00
aa(lp577
I00
aa(lp578
I00
aa(lp579
I00
aa(lp580
I00
aa(lp581
I00
aa(lp582
I00
aa(lp583
I00
aa(lp584
I00
aa(lp585
I00
aa(lp586
I00
aa(lp587
I00
aa(lp588
I00
aaa(lp589
(lp590
I00
aa(lp591
I00
aa(lp592
I00
aa(lp593
I00
aa(lp594
I00
aa(lp595
I00
aa(lp596
I00
aa(lp597
I00
aa(lp598
I00
aa(lp599
I00
aa(lp600
I00
aa(lp601
I00
aa(lp602
I00
aa(lp603
I00
aa(lp604
I00
aa(lp605
I00
aa(lp606
I00
aa(lp607
I00
aa(lp608
I00
aa(lp609
I00
aaa(lp610
(lp611
I00
aa(lp612
I00
aa(lp613
I00
aa(lp614
I00
aa(lp615
I00
aa(lp616
I00
aa(lp617
I00
aa(lp618
I00
aa(lp619
I00
aa(lp620
I00
aa(lp621
I00
aa(lp622
I00
aa(lp623
I00
aa(lp624
I00
aa(lp625
I00
aa(lp626
I00
aa(lp627
I00
aa(lp628
I00
aa(lp629
I00
aa(lp630
I00
aaaI80
a.